; Function Attrs: mustprogress nounwind uwtable
define hidden void @_ZN31G1ConcurrentRefineThreadControlC2Ej(ptr nocapture noundef nonnull writeonly align 8 dereferenceable(24) %0, i32 noundef %1) unnamed_addr #0 align 2 {
  store ptr null, ptr %0, align 8
  %3 = getelementptr inbounds i8, ptr %0, i64 8
  %4 = icmp eq i32 %1, 0
  br i1 %4, label %_ZN18GrowableArrayCHeapIP24G1ConcurrentRefineThreadL8MEMFLAGS5EE8allocateEiS2_.exit.thread.i, label %_ZN18GrowableArrayCHeapIP24G1ConcurrentRefineThreadL8MEMFLAGS5EE8allocateEiS2_.exit.i

_ZN18GrowableArrayCHeapIP24G1ConcurrentRefineThreadL8MEMFLAGS5EE8allocateEiS2_.exit.thread.i: ; preds = %2
  tail call void @llvm.memset.p0.i64(ptr noundef nonnull align 8 dereferenceable(16) %3, i8 0, i64 16, i1 false)
  br label %_ZN18GrowableArrayCHeapIP24G1ConcurrentRefineThreadL8MEMFLAGS5EEC2Ei.exit

_ZN18GrowableArrayCHeapIP24G1ConcurrentRefineThreadL8MEMFLAGS5EE8allocateEiS2_.exit.i: ; preds = %2
  %5 = tail call noundef ptr @_ZN27GrowableArrayCHeapAllocator8allocateEii8MEMFLAGS(i32 noundef %1, i32 noundef 8, i8 noundef zeroext 5) #17
  store i32 0, ptr %3, align 8
  %6 = getelementptr inbounds i8, ptr %0, i64 12
  store i32 %1, ptr %6, align 4
  %7 = getelementptr inbounds i8, ptr %0, i64 16
  store ptr %5, ptr %7, align 8
  %8 = icmp sgt i32 %1, 0
  br i1 %8, label %.lr.ph.preheader.i.i, label %_ZN18GrowableArrayCHeapIP24G1ConcurrentRefineThreadL8MEMFLAGS5EEC2Ei.exit

.lr.ph.preheader.i.i:                             ; preds = %_ZN18GrowableArrayCHeapIP24G1ConcurrentRefineThreadL8MEMFLAGS5EE8allocateEiS2_.exit.i
  %9 = zext nneg i32 %1 to i64
  %10 = shl nuw nsw i64 %9, 3
  tail call void @llvm.memset.p0.i64(ptr align 8 %5, i8 0, i64 %10, i1 false)
  br label %_ZN18GrowableArrayCHeapIP24G1ConcurrentRefineThreadL8MEMFLAGS5EEC2Ei.exit

_ZN18GrowableArrayCHeapIP24G1ConcurrentRefineThreadL8MEMFLAGS5EEC2Ei.exit: ; preds = %_ZN18GrowableArrayCHeapIP24G1ConcurrentRefineThreadL8MEMFLAGS5EE8allocateEiS2_.exit.thread.i, %_ZN18GrowableArrayCHeapIP24G1ConcurrentRefineThreadL8MEMFLAGS5EE8allocateEiS2_.exit.i, %.lr.ph.preheader.i.i
  ret void
}